; Function Attrs: null_pointer_is_valid sspstrong uwtable
define noundef ptr @make_printable_string(ptr noundef %0, ptr noundef readonly captures(none) %1, i32 noundef %2) local_unnamed_addr #0 {
  %4 = add i32 %2, 1
  %5 = zext i32 %4 to i64
  %6 = tail call noalias ptr @wmem_alloc0(ptr noundef %0, i64 noundef %5) #18
  %7 = zext i32 %2 to i64
  %8 = tail call ptr @__memcpy_chk(ptr noundef %6, ptr noundef %1, i64 noundef range(i64 0, 4294967296) %7, i64 noundef %5) #17, !alias.scope !6
  %.not13 = icmp eq i32 %2, 0
  br i1 %.not13, label %._crit_edge, label %.lr.ph

.lr.ph:                                           ; preds = %3
  %9 = load ptr, ptr @g_ascii_table, align 8
  br label %10

10:                                               ; preds = %.lr.ph, %18
  %indvars.iv = phi i64 [ 0, %.lr.ph ], [ %indvars.iv.next, %18 ]
  %11 = getelementptr i8, ptr %6, i64 %indvars.iv
  %12 = load i8, ptr %11, align 1
  %13 = zext i8 %12 to i64
  %14 = getelementptr i16, ptr %9, i64 %13
  %15 = load i16, ptr %14, align 2
  %16 = and i16 %15, 64
  %.not = icmp eq i16 %16, 0
  br i1 %.not, label %17, label %18

17:                                               ; preds = %10
  store i8 46, ptr %11, align 1
  br label %18

18:                                               ; preds = %10, %17
  %indvars.iv.next = add nuw nsw i64 %indvars.iv, 1
  %exitcond.not = icmp eq i64 %indvars.iv.next, %7
  br i1 %exitcond.not, label %._crit_edge, label %10, !llvm.loop !10

._crit_edge:                                      ; preds = %18, %3
  ret ptr %6
}